; Function Attrs: mustprogress nounwind uwtable
define internal fastcc void @_ZN6hermes12_GLOBAL__N_119DependencyExtractor5visitEPNS_6ESTree14JSXElementNodeE(ptr noundef nonnull align 8 dereferenceable(145) %this, ptr noundef readonly %node) unnamed_addr #0 align 2 {
entry:
  %foundJSX_.i = getelementptr inbounds i8, ptr %this, i64 144
  %0 = load i8, ptr %foundJSX_.i, align 8
  %1 = and i8 %0, 1
  %tobool.not.i = icmp eq i8 %1, 0
  br i1 %tobool.not.i, label %if.end.i, label %_ZN6hermes12_GLOBAL__N_119DependencyExtractor23registerJSXDependenciesEv.exit

if.end.i:                                         ; preds = %entry
  store i8 1, ptr %foundJSX_.i, align 8
  tail call fastcc void @_ZN6hermes12_GLOBAL__N_119DependencyExtractor13addDependencyEN4llvh9StringRefENS_14DependencyKindE(ptr noundef nonnull align 8 dereferenceable(145) %this, ptr nonnull @.str.25, i64 17, i32 noundef 0)
  tail call fastcc void @_ZN6hermes12_GLOBAL__N_119DependencyExtractor13addDependencyEN4llvh9StringRefENS_14DependencyKindE(ptr noundef nonnull align 8 dereferenceable(145) %this, ptr nonnull @.str.26, i64 21, i32 noundef 0)
  br label %_ZN6hermes12_GLOBAL__N_119DependencyExtractor23registerJSXDependenciesEv.exit

_ZN6hermes12_GLOBAL__N_119DependencyExtractor23registerJSXDependenciesEv.exit: ; preds = %entry, %if.end.i
  %_openingElement.i = getelementptr inbounds i8, ptr %node, i64 48
  %2 = load ptr, ptr %_openingElement.i, align 8
  tail call fastcc void @_ZN6hermes6ESTree24RecursiveVisitorDispatchINS_12_GLOBAL__N_119DependencyExtractorELb1EE5visitERS3_PNS0_4NodeES7_(ptr noundef nonnull align 8 dereferenceable(145) %this, ptr noundef %2)
  %_children.i = getelementptr inbounds i8, ptr %node, i64 56
  %Next.i.i.i.i.i = getelementptr inbounds i8, ptr %node, i64 64
  %__begin4.i.sroa.0.010.i = load ptr, ptr %Next.i.i.i.i.i, align 8
  %cmp.i.not11.i = icmp eq ptr %__begin4.i.sroa.0.010.i, %_children.i
  br i1 %cmp.i.not11.i, label %_ZN6hermes6ESTree24RecursiveVisitorDispatchINS_12_GLOBAL__N_119DependencyExtractorELb1EE13visitChildrenERS3_PNS0_14JSXElementNodeE.exit, label %for.body.i.i

for.body.i.i:                                     ; preds = %_ZN6hermes12_GLOBAL__N_119DependencyExtractor23registerJSXDependenciesEv.exit, %for.body.i.i
  %__begin4.i.sroa.0.012.i = phi ptr [ %__begin4.i.sroa.0.0.i, %for.body.i.i ], [ %__begin4.i.sroa.0.010.i, %_ZN6hermes12_GLOBAL__N_119DependencyExtractor23registerJSXDependenciesEv.exit ]
  tail call fastcc void @_ZN6hermes6ESTree24RecursiveVisitorDispatchINS_12_GLOBAL__N_119DependencyExtractorELb1EE5visitERS3_PNS0_4NodeES7_(ptr noundef nonnull align 8 dereferenceable(145) %this, ptr noundef nonnull %__begin4.i.sroa.0.012.i)
  %Next.i.i.i.i = getelementptr inbounds i8, ptr %__begin4.i.sroa.0.012.i, i64 8
  %__begin4.i.sroa.0.0.i = load ptr, ptr %Next.i.i.i.i, align 8
  %cmp.i.not.i = icmp eq ptr %__begin4.i.sroa.0.0.i, %_children.i
  br i1 %cmp.i.not.i, label %_ZN6hermes6ESTree24RecursiveVisitorDispatchINS_12_GLOBAL__N_119DependencyExtractorELb1EE13visitChildrenERS3_PNS0_14JSXElementNodeE.exit, label %for.body.i.i

_ZN6hermes6ESTree24RecursiveVisitorDispatchINS_12_GLOBAL__N_119DependencyExtractorELb1EE13visitChildrenERS3_PNS0_14JSXElementNodeE.exit: ; preds = %for.body.i.i, %_ZN6hermes12_GLOBAL__N_119DependencyExtractor23registerJSXDependenciesEv.exit
  %_closingElement.i = getelementptr inbounds i8, ptr %node, i64 72
  %3 = load ptr, ptr %_closingElement.i, align 8
  tail call fastcc void @_ZN6hermes6ESTree24RecursiveVisitorDispatchINS_12_GLOBAL__N_119DependencyExtractorELb1EE5visitERS3_PNS0_4NodeES7_(ptr noundef nonnull align 8 dereferenceable(145) %this, ptr noundef %3)
  ret void
}